; ModuleID = '51/87.c'
source_filename = "51/87.c"
target datalayout = "e-m:e-p270:32:32-p271:32:32-p272:64:64-i64:64-f80:128-n8:16:32:64-S128"
target triple = "x86_64-pc-linux-gnu"

@.str = private unnamed_addr constant [4 x i8] c"%d\0A\00", align 1
@.str.1 = private unnamed_addr constant [3 x i8] c"NO\00", align 1

; Function Attrs: noinline nounwind uwtable
define dso_local i32 @main() #0 {
  %1 = alloca i32, align 4
  %2 = alloca i32, align 4
  %3 = alloca i32, align 4
  %4 = alloca i32, align 4
  %5 = alloca [505 x i32], align 16
  %6 = alloca [505 x i8], align 16
  %7 = alloca [505 x [5 x i8]], align 16
  %8 = alloca i32, align 4
  %9 = alloca i32, align 4
  %10 = alloca i32, align 4
  %11 = alloca i32, align 4
  store i32 0, i32* %1, align 4
  store i32 0, i32* %4, align 4
  %12 = bitcast [505 x i32]* %5 to i8*
  call void @llvm.memset.p0i8.i64(i8* align 16 %12, i8 0, i64 2020, i1 false)
  %13 = bitcast [505 x i8]* %6 to i8*
  call void @llvm.memset.p0i8.i64(i8* align 16 %13, i8 0, i64 505, i1 false)
  %14 = bitcast [505 x [5 x i8]]* %7 to i8*
  call void @llvm.memset.p0i8.i64(i8* align 16 %14, i8 0, i64 2525, i1 false)
  %15 = call i32 (i8*, ...) @__isoc99_scanf(i8* getelementptr inbounds ([4 x i8], [4 x i8]* @.str, i64 0, i64 0), i32* %2)
  %16 = getelementptr inbounds [505 x i8], [505 x i8]* %6, i64 0, i64 0
  %17 = call i32 (i8*, ...) bitcast (i32 (...)* @gets to i32 (i8*, ...)*)(i8* %16)
  %18 = getelementptr inbounds [505 x i8], [505 x i8]* %6, i64 0, i64 0
  %19 = call i64 @strlen(i8* %18) #4
  %20 = trunc i64 %19 to i32
  store i32 %20, i32* %10, align 4
  store i32 0, i32* %8, align 4
  br label %21

21:                                               ; preds = %52, %0
  %22 = load i32, i32* %8, align 4
  %23 = load i32, i32* %10, align 4
  %24 = load i32, i32* %2, align 4
  %25 = sub nsw i32 %23, %24
  %26 = icmp sle i32 %22, %25
  br i1 %26, label %27, label %55

27:                                               ; preds = %21
  store i32 0, i32* %9, align 4
  br label %28

28:                                               ; preds = %48, %27
  %29 = load i32, i32* %9, align 4
  %30 = load i32, i32* %2, align 4
  %31 = icmp slt i32 %29, %30
  br i1 %31, label %32, label %51

32:                                               ; preds = %28
  %33 = load i32, i32* %8, align 4
  %34 = load i32, i32* %9, align 4
  %35 = add nsw i32 %33, %34
  %36 = sext i32 %35 to i64
  %37 = getelementptr inbounds [505 x i8], [505 x i8]* %6, i64 0, i64 %36
  %38 = load i8, i8* %37, align 1
  %39 = load i32, i32* %8, align 4
  %40 = sext i32 %39 to i64
  %41 = getelementptr inbounds [505 x [5 x i8]], [505 x [5 x i8]]* %7, i64 0, i64 %40
  %42 = load i32, i32* %9, align 4
  %43 = sext i32 %42 to i64
  %44 = getelementptr inbounds [5 x i8], [5 x i8]* %41, i64 0, i64 %43
  store i8 %38, i8* %44, align 1
  %45 = load i32, i32* %8, align 4
  %46 = sext i32 %45 to i64
  %47 = getelementptr inbounds [505 x i32], [505 x i32]* %5, i64 0, i64 %46
  store i32 1, i32* %47, align 4
  br label %48

48:                                               ; preds = %32
  %49 = load i32, i32* %9, align 4
  %50 = add nsw i32 %49, 1
  store i32 %50, i32* %9, align 4
  br label %28

51:                                               ; preds = %28
  br label %52

52:                                               ; preds = %51
  %53 = load i32, i32* %8, align 4
  %54 = add nsw i32 %53, 1
  store i32 %54, i32* %8, align 4
  br label %21

55:                                               ; preds = %21
  store i32 0, i32* %8, align 4
  br label %56

56:                                               ; preds = %124, %55
  %57 = load i32, i32* %8, align 4
  %58 = load i32, i32* %10, align 4
  %59 = load i32, i32* %2, align 4
  %60 = sub nsw i32 %58, %59
  %61 = add nsw i32 %60, 1
  %62 = icmp sle i32 %57, %61
  br i1 %62, label %63, label %127

63:                                               ; preds = %56
  %64 = load i32, i32* %8, align 4
  %65 = add nsw i32 %64, 1
  store i32 %65, i32* %9, align 4
  br label %66

66:                                               ; preds = %120, %63
  %67 = load i32, i32* %9, align 4
  %68 = load i32, i32* %10, align 4
  %69 = load i32, i32* %2, align 4
  %70 = sub nsw i32 %68, %69
  %71 = add nsw i32 %70, 1
  %72 = icmp slt i32 %67, %71
  br i1 %72, label %73, label %123

73:                                               ; preds = %66
  %74 = load i32, i32* %8, align 4
  %75 = sext i32 %74 to i64
  %76 = getelementptr inbounds [505 x i32], [505 x i32]* %5, i64 0, i64 %75
  %77 = load i32, i32* %76, align 4
  %78 = icmp ne i32 %77, 0
  br i1 %78, label %79, label %119

79:                                               ; preds = %73
  %80 = load i32, i32* %9, align 4
  %81 = sext i32 %80 to i64
  %82 = getelementptr inbounds [505 x i32], [505 x i32]* %5, i64 0, i64 %81
  %83 = load i32, i32* %82, align 4
  %84 = icmp ne i32 %83, 0
  br i1 %84, label %85, label %119

85:                                               ; preds = %79
  %86 = load i32, i32* %8, align 4
  %87 = sext i32 %86 to i64
  %88 = getelementptr inbounds [505 x [5 x i8]], [505 x [5 x i8]]* %7, i64 0, i64 %87
  %89 = getelementptr inbounds [5 x i8], [5 x i8]* %88, i64 0, i64 0
  %90 = load i32, i32* %9, align 4
  %91 = sext i32 %90 to i64
  %92 = getelementptr inbounds [505 x [5 x i8]], [505 x [5 x i8]]* %7, i64 0, i64 %91
  %93 = getelementptr inbounds [5 x i8], [5 x i8]* %92, i64 0, i64 0
  %94 = call i32 @strcmp(i8* %89, i8* %93) #4
  store i32 %94, i32* %3, align 4
  %95 = load i32, i32* %3, align 4
  %96 = icmp eq i32 %95, 0
  br i1 %96, label %97, label %118

97:                                               ; preds = %85
  %98 = load i32, i32* %8, align 4
  %99 = sext i32 %98 to i64
  %100 = getelementptr inbounds [505 x i32], [505 x i32]* %5, i64 0, i64 %99
  %101 = load i32, i32* %100, align 4
  %102 = add nsw i32 %101, 1
  store i32 %102, i32* %100, align 4
  %103 = load i32, i32* %9, align 4
  %104 = sext i32 %103 to i64
  %105 = getelementptr inbounds [505 x i32], [505 x i32]* %5, i64 0, i64 %104
  store i32 0, i32* %105, align 4
  %106 = load i32, i32* %8, align 4
  %107 = sext i32 %106 to i64
  %108 = getelementptr inbounds [505 x i32], [505 x i32]* %5, i64 0, i64 %107
  %109 = load i32, i32* %108, align 4
  %110 = load i32, i32* %4, align 4
  %111 = icmp sgt i32 %109, %110
  br i1 %111, label %112, label %117

112:                                              ; preds = %97
  %113 = load i32, i32* %8, align 4
  %114 = sext i32 %113 to i64
  %115 = getelementptr inbounds [505 x i32], [505 x i32]* %5, i64 0, i64 %114
  %116 = load i32, i32* %115, align 4
  store i32 %116, i32* %4, align 4
  br label %117

117:                                              ; preds = %112, %97
  br label %118

118:                                              ; preds = %117, %85
  br label %119

119:                                              ; preds = %118, %79, %73
  br label %120

120:                                              ; preds = %119
  %121 = load i32, i32* %9, align 4
  %122 = add nsw i32 %121, 1
  store i32 %122, i32* %9, align 4
  br label %66

123:                                              ; preds = %66
  br label %124

124:                                              ; preds = %123
  %125 = load i32, i32* %8, align 4
  %126 = add nsw i32 %125, 1
  store i32 %126, i32* %8, align 4
  br label %56

127:                                              ; preds = %56
  %128 = load i32, i32* %4, align 4
  %129 = icmp sle i32 %128, 1
  br i1 %129, label %130, label %132

130:                                              ; preds = %127
  %131 = call i32 (i8*, ...) @printf(i8* getelementptr inbounds ([3 x i8], [3 x i8]* @.str.1, i64 0, i64 0))
  br label %159

132:                                              ; preds = %127
  %133 = load i32, i32* %4, align 4
  %134 = call i32 (i8*, ...) @printf(i8* getelementptr inbounds ([4 x i8], [4 x i8]* @.str, i64 0, i64 0), i32 %133)
  store i32 0, i32* %11, align 4
  br label %135

135:                                              ; preds = %155, %132
  %136 = load i32, i32* %11, align 4
  %137 = load i32, i32* %10, align 4
  %138 = load i32, i32* %2, align 4
  %139 = sub nsw i32 %137, %138
  %140 = icmp sle i32 %136, %139
  br i1 %140, label %141, label %158

141:                                              ; preds = %135
  %142 = load i32, i32* %11, align 4
  %143 = sext i32 %142 to i64
  %144 = getelementptr inbounds [505 x i32], [505 x i32]* %5, i64 0, i64 %143
  %145 = load i32, i32* %144, align 4
  %146 = load i32, i32* %4, align 4
  %147 = icmp eq i32 %145, %146
  br i1 %147, label %148, label %154

148:                                              ; preds = %141
  %149 = load i32, i32* %11, align 4
  %150 = sext i32 %149 to i64
  %151 = getelementptr inbounds [505 x [5 x i8]], [505 x [5 x i8]]* %7, i64 0, i64 %150
  %152 = getelementptr inbounds [5 x i8], [5 x i8]* %151, i64 0, i64 0
  %153 = call i32 @puts(i8* %152)
  br label %154

154:                                              ; preds = %148, %141
  br label %155

155:                                              ; preds = %154
  %156 = load i32, i32* %11, align 4
  %157 = add nsw i32 %156, 1
  store i32 %157, i32* %11, align 4
  br label %135

158:                                              ; preds = %135
  br label %159

159:                                              ; preds = %158, %130
  ret i32 0
}

; Function Attrs: argmemonly nounwind willreturn
declare void @llvm.memset.p0i8.i64(i8* nocapture writeonly, i8, i64, i1 immarg) #1

declare dso_local i32 @__isoc99_scanf(i8*, ...) #2

declare dso_local i32 @gets(...) #2

; Function Attrs: nounwind readonly
declare dso_local i64 @strlen(i8*) #3

; Function Attrs: nounwind readonly
declare dso_local i32 @strcmp(i8*, i8*) #3

declare dso_local i32 @printf(i8*, ...) #2

declare dso_local i32 @puts(i8*) #2


!llvm.module.flags = !{!0}
!llvm.ident = !{!1}

!0 = !{i32 1, !"wchar_size", i32 4}
!1 = !{!"clang version 10.0.0-4ubuntu1 "}
